target datalayout = "e-m:e-p270:32:32-p271:32:32-p272:64:64-i64:64-i128:128-f80:128-n8:16:32:64-S128"
target triple = "x86_64-pc-linux-gnu"

%struct.FFFilter = type { %struct.AVFilter, i8, i8, i8, ptr, ptr, ptr, %union.anon, i32, i32, ptr, ptr }
%struct.AVFilter = type { ptr, ptr, ptr, ptr, ptr, i32 }
%union.anon = type { ptr }

; Function Attrs: nounwind uwtable
define ptr @av_filter_iterate(ptr noundef %0) #0 {
  %2 = alloca ptr, align 8
  %3 = alloca ptr, align 8
  %4 = alloca i64, align 8
  %5 = alloca ptr, align 8
  %6 = alloca i32, align 4
  store ptr %0, ptr %3, align 8, !tbaa !4
  call void @llvm.lifetime.start.p0(i64 8, ptr %4) #3
  %7 = load ptr, ptr %3, align 8, !tbaa !4
  %8 = load ptr, ptr %7, align 8, !tbaa !9
  %9 = ptrtoint ptr %8 to i64
  store i64 %9, ptr %4, align 8, !tbaa !10
  call void @llvm.lifetime.start.p0(i64 8, ptr %5) #3
  %10 = load i64, ptr %4, align 8, !tbaa !10
  %11 = getelementptr inbounds nuw [455 x ptr], ptr @filter_list, i64 0, i64 %10
  %12 = load ptr, ptr %11, align 8, !tbaa !12
  store ptr %12, ptr %5, align 8, !tbaa !12
  %13 = load ptr, ptr %5, align 8, !tbaa !12
  %14 = icmp ne ptr %13, null
  br i1 %14, label %15, label %22

15:                                               ; preds = %1
  %16 = load i64, ptr %4, align 8, !tbaa !10
  %17 = add i64 %16, 1
  %18 = inttoptr i64 %17 to ptr
  %19 = load ptr, ptr %3, align 8, !tbaa !4
  store ptr %18, ptr %19, align 8, !tbaa !9
  %20 = load ptr, ptr %5, align 8, !tbaa !12
  %21 = getelementptr inbounds nuw %struct.FFFilter, ptr %20, i32 0, i32 0
  store ptr %21, ptr %2, align 8
  store i32 1, ptr %6, align 4
  br label %23

22:                                               ; preds = %1
  store ptr null, ptr %2, align 8
  store i32 1, ptr %6, align 4
  br label %23

23:                                               ; preds = %22, %15
  call void @llvm.lifetime.end.p0(i64 8, ptr %5) #3
  call void @llvm.lifetime.end.p0(i64 8, ptr %4) #3
  %24 = load ptr, ptr %2, align 8
  ret ptr %24
}

; Function Attrs: nounwind uwtable
define ptr @avfilter_get_by_name(ptr noundef %0) #0 {
  %2 = alloca ptr, align 8
  %3 = alloca ptr, align 8
  %4 = alloca ptr, align 8
  %5 = alloca ptr, align 8
  %6 = alloca i32, align 4
  store ptr %0, ptr %3, align 8, !tbaa !14
  call void @llvm.lifetime.start.p0(i64 8, ptr %4) #3
  store ptr null, ptr %4, align 8, !tbaa !16
  call void @llvm.lifetime.start.p0(i64 8, ptr %5) #3
  store ptr null, ptr %5, align 8, !tbaa !9
  %7 = load ptr, ptr %3, align 8, !tbaa !14
  %8 = icmp ne ptr %7, null
  br i1 %8, label %10, label %9

9:                                                ; preds = %1
  store ptr null, ptr %2, align 8
  store i32 1, ptr %6, align 4
  br label %25

10:                                               ; preds = %1
  br label %11

11:                                               ; preds = %23, %10
  %12 = call ptr @av_filter_iterate(ptr noundef %5)
  store ptr %12, ptr %4, align 8, !tbaa !16
  %13 = icmp ne ptr %12, null
  br i1 %13, label %14, label %24

14:                                               ; preds = %11
  %15 = load ptr, ptr %4, align 8, !tbaa !16
  %16 = getelementptr inbounds nuw %struct.AVFilter, ptr %15, i32 0, i32 0
  %17 = load ptr, ptr %16, align 8, !tbaa !18
  %18 = load ptr, ptr %3, align 8, !tbaa !14
  %19 = call i32 @strcmp(ptr noundef %17, ptr noundef %18) #4
  %20 = icmp ne i32 %19, 0
  br i1 %20, label %23, label %21

21:                                               ; preds = %14
  %22 = load ptr, ptr %4, align 8, !tbaa !16
  store ptr %22, ptr %2, align 8
  store i32 1, ptr %6, align 4
  br label %25

23:                                               ; preds = %14
  br label %11, !llvm.loop !23

24:                                               ; preds = %11
  store ptr null, ptr %2, align 8
  store i32 1, ptr %6, align 4
  br label %25

25:                                               ; preds = %24, %21, %9
  call void @llvm.lifetime.end.p0(i64 8, ptr %5) #3
  call void @llvm.lifetime.end.p0(i64 8, ptr %4) #3
  %26 = load ptr, ptr %2, align 8
  ret ptr %26
}