; Function Attrs: nofree norecurse nounwind memory(read, inaccessiblemem: none) uwtable
define noundef ptr @avfilter_get_by_name(ptr noundef readonly captures(address_is_null) %0) local_unnamed_addr #1 {
  %.not = icmp eq ptr %0, null
  br i1 %.not, label %av_filter_iterate.exit.thread, label %.preheader

.preheader:                                       ; preds = %1, %av_filter_iterate.exit
  %.08 = phi ptr [ %6, %av_filter_iterate.exit ], [ null, %1 ]
  %.not.i = icmp eq ptr %.08, inttoptr (i64 454 to ptr)
  br i1 %.not.i, label %av_filter_iterate.exit.thread, label %av_filter_iterate.exit

av_filter_iterate.exit:                           ; preds = %.preheader
  %2 = ptrtoint ptr %.08 to i64
  %3 = getelementptr inbounds nuw [455 x ptr], ptr @filter_list, i64 0, i64 %2
  %4 = load ptr, ptr %3, align 8, !tbaa !8
  %5 = add i64 %2, 1
  %6 = inttoptr i64 %5 to ptr
  %7 = load ptr, ptr %4, align 8, !tbaa !10
  %8 = tail call i32 @strcmp(ptr noundef nonnull dereferenceable(1) %7, ptr noundef nonnull dereferenceable(1) %0) #3
  %.not7 = icmp eq i32 %8, 0
  br i1 %.not7, label %av_filter_iterate.exit.thread, label %.preheader, !llvm.loop !16

av_filter_iterate.exit.thread:                    ; preds = %.preheader, %av_filter_iterate.exit, %1
  %.0 = phi ptr [ null, %1 ], [ null, %.preheader ], [ %4, %av_filter_iterate.exit ]
  ret ptr %.0
}